target datalayout = "e-m:e-p270:32:32-p271:32:32-p272:64:64-i64:64-i128:128-f80:128-n8:16:32:64-S128"
target triple = "x86_64-pc-linux-gnu"

%struct.OnigCalloutArgsStruct = type { i32, i32, i32, ptr, ptr, ptr, ptr, ptr, ptr, i64, ptr, ptr, ptr, ptr, ptr }
%struct.MatchArg = type { ptr, i32, i32, ptr, i32, ptr, i32, i64, i64, i64, ptr, i32, ptr, i64, ptr }

; Function Attrs: nounwind uwtable
define dso_local i32 @onig_builtin_skip(ptr noundef %0, ptr noundef %1) #0 {
  %3 = alloca ptr, align 8
  %4 = alloca ptr, align 8
  store ptr %0, ptr %3, align 8, !tbaa !45
  store ptr %1, ptr %4, align 8, !tbaa !17
  %5 = load ptr, ptr %3, align 8, !tbaa !45
  %6 = getelementptr inbounds nuw %struct.OnigCalloutArgsStruct, ptr %5, i32 0, i32 8
  %7 = load ptr, ptr %6, align 8, !tbaa !167
  %8 = load ptr, ptr %3, align 8, !tbaa !45
  %9 = getelementptr inbounds nuw %struct.OnigCalloutArgsStruct, ptr %8, i32 0, i32 10
  %10 = load ptr, ptr %9, align 8, !tbaa !47
  %11 = getelementptr inbounds nuw %struct.MatchArg, ptr %10, i32 0, i32 14
  %12 = load ptr, ptr %11, align 8, !tbaa !97
  %13 = icmp ugt ptr %7, %12
  br i1 %13, label %14, label %22

14:                                               ; preds = %2
  %15 = load ptr, ptr %3, align 8, !tbaa !45
  %16 = getelementptr inbounds nuw %struct.OnigCalloutArgsStruct, ptr %15, i32 0, i32 8
  %17 = load ptr, ptr %16, align 8, !tbaa !167
  %18 = load ptr, ptr %3, align 8, !tbaa !45
  %19 = getelementptr inbounds nuw %struct.OnigCalloutArgsStruct, ptr %18, i32 0, i32 10
  %20 = load ptr, ptr %19, align 8, !tbaa !47
  %21 = getelementptr inbounds nuw %struct.MatchArg, ptr %20, i32 0, i32 14
  store ptr %17, ptr %21, align 8, !tbaa !97
  br label %22

22:                                               ; preds = %14, %2
  ret i32 0
}