; Function Attrs: mustprogress nofree norecurse nosync nounwind willreturn memory(readwrite, inaccessiblemem: none) uwtable
define dso_local noundef i32 @onig_builtin_skip(ptr noundef readonly captures(none) %0, ptr noundef readnone captures(none) %1) local_unnamed_addr #13 {
  %3 = getelementptr inbounds nuw i8, ptr %0, i64 56
  %4 = load ptr, ptr %3, align 8, !tbaa !162
  %5 = getelementptr inbounds nuw i8, ptr %0, i64 72
  %6 = load ptr, ptr %5, align 8, !tbaa !43
  %7 = getelementptr inbounds nuw i8, ptr %6, i64 104
  %8 = load ptr, ptr %7, align 8, !tbaa !90
  %9 = icmp ugt ptr %4, %8
  br i1 %9, label %10, label %11

10:                                               ; preds = %2
  store ptr %4, ptr %7, align 8, !tbaa !90
  br label %11

11:                                               ; preds = %10, %2
  ret i32 0
}